; Function Attrs: mustprogress uwtable
define internal void @_ZL11DieInThreadPi(ptr nocapture noundef readonly %0) #0 personality ptr @__gxx_personality_v0 {
  %2 = alloca %"class.std::__cxx11::basic_ostringstream", align 8
  %3 = alloca %"class.std::__cxx11::basic_string", align 8
  call void @_ZNSt7__cxx1119basic_ostringstreamIcSt11char_traitsIcESaIcEEC1Ev(ptr noundef nonnull align 8 dereferenceable(112) %2)
  %4 = invoke noundef nonnull align 8 dereferenceable(8) ptr @_ZNSolsEPFRSt8ios_baseS0_E(ptr noundef nonnull align 8 dereferenceable(8) %2, ptr noundef nonnull @_ZSt8showbaseRSt8ios_base)
          to label %5 unwind label %24

5:                                                ; preds = %1
  %6 = invoke noundef nonnull align 8 dereferenceable(8) ptr @_ZNSolsEPFRSt8ios_baseS0_E(ptr noundef nonnull align 8 dereferenceable(8) %4, ptr noundef nonnull @_ZSt3hexRSt8ios_base)
          to label %7 unwind label %24

7:                                                ; preds = %5
  %8 = tail call i64 @pthread_self() #24
  %9 = icmp eq i64 %8, 0
  br i1 %9, label %10, label %12

10:                                               ; preds = %7
  %11 = invoke noundef nonnull align 8 dereferenceable(8) ptr @_ZStlsISt11char_traitsIcEERSt13basic_ostreamIcT_ES5_PKc(ptr noundef nonnull align 8 dereferenceable(8) %6, ptr noundef nonnull @.str.16)
          to label %_ZStlsIcSt11char_traitsIcEERSt13basic_ostreamIT_T0_ES6_NSt6thread2idE.exit unwind label %24

12:                                               ; preds = %7
  %13 = invoke noundef nonnull align 8 dereferenceable(8) ptr @_ZNSolsEm(ptr noundef nonnull align 8 dereferenceable(8) %6, i64 noundef %8)
          to label %_ZStlsIcSt11char_traitsIcEERSt13basic_ostreamIT_T0_ES6_NSt6thread2idE.exit unwind label %24

_ZStlsIcSt11char_traitsIcEERSt13basic_ostreamIT_T0_ES6_NSt6thread2idE.exit: ; preds = %10, %12
  %14 = load ptr, ptr @stderr, align 8
  invoke void @_ZNKSt7__cxx1119basic_ostringstreamIcSt11char_traitsIcESaIcEE3strEv(ptr dead_on_unwind nonnull writable sret(%"class.std::__cxx11::basic_string") align 8 %3, ptr noundef nonnull align 8 dereferenceable(112) %2)
          to label %15 unwind label %24

15:                                               ; preds = %_ZStlsIcSt11char_traitsIcEERSt13basic_ostreamIT_T0_ES6_NSt6thread2idE.exit
  %16 = call noundef ptr @_ZNKSt7__cxx1112basic_stringIcSt11char_traitsIcESaIcEE5c_strEv(ptr noundef nonnull align 8 dereferenceable(32) %3) #18
  %17 = call i32 (ptr, ptr, ...) @fprintf(ptr noundef %14, ptr noundef nonnull @.str.14, ptr noundef %16) #23
  call void @_ZNSt7__cxx1112basic_stringIcSt11char_traitsIcESaIcEED1Ev(ptr noundef nonnull align 8 dereferenceable(32) %3) #18
  %18 = load i32, ptr %0, align 4
  %.fr = freeze i32 %18
  %19 = add i32 %.fr, 1
  %20 = icmp ult i32 %19, 3
  %21 = select i1 %20, i32 %.fr, i32 0
  %22 = load ptr, ptr @stderr, align 8
  %23 = call i32 (ptr, ptr, ...) @fprintf(ptr noundef %22, ptr noundef nonnull @.str.15, i32 noundef %21) #23
  call void @_ZNSt7__cxx1119basic_ostringstreamIcSt11char_traitsIcESaIcEED1Ev(ptr noundef nonnull align 8 dereferenceable(112) %2) #18
  ret void

24:                                               ; preds = %12, %10, %_ZStlsIcSt11char_traitsIcEERSt13basic_ostreamIT_T0_ES6_NSt6thread2idE.exit, %5, %1
  %25 = landingpad { ptr, i32 }
          cleanup
  call void @_ZNSt7__cxx1119basic_ostringstreamIcSt11char_traitsIcESaIcEED1Ev(ptr noundef nonnull align 8 dereferenceable(112) %2) #18
  resume { ptr, i32 } %25
}